target datalayout = "e-m:e-p270:32:32-p271:32:32-p272:64:64-i64:64-i128:128-f80:128-n8:16:32:64-S128"
target triple = "x86_64-pc-linux-gnu"

%struct.FormData_pg_proc = type { i32, %struct.nameData, i32, i32, i32, float, float, i32, i32, i8, i8, i8, i8, i8, i8, i8, i16, i16, i32, %struct.oidvector }
%struct.nameData = type { [64 x i8] }
%struct.oidvector = type { i32, i32, i32, i32, i32, i32, [0 x i32] }
%struct.SQLFunctionParseInfo = type { ptr, i32, ptr, ptr, i32 }
%struct.HeapTupleData = type { i32, %struct.ItemPointerData, i32, ptr }
%struct.ItemPointerData = type { %struct.BlockIdData, i16 }
%struct.BlockIdData = type { i16, i16 }
%struct.HeapTupleHeaderData = type { %union.anon, %struct.ItemPointerData, i16, i16, i8, [0 x i8] }
%union.anon = type { %struct.HeapTupleFields }
%struct.HeapTupleFields = type { i32, i32, %union.anon.0 }
%union.anon.0 = type { i32 }

@.str = private unnamed_addr constant [56 x i8] c"could not determine actual type of argument declared %s\00", align 1
@.str.1 = private unnamed_addr constant [12 x i8] c"functions.c\00", align 1
@__func__.prepare_sql_fn_parse_info = private unnamed_addr constant [26 x i8] c"prepare_sql_fn_parse_info\00", align 1

; Function Attrs: inlinehint nounwind uwtable
define internal i64 @PointerGetDatum(ptr noundef %0) #2 {
  %2 = alloca ptr, align 8
  store ptr %0, ptr %2, align 8
  %3 = load ptr, ptr %2, align 8
  %4 = ptrtoint ptr %3 to i64
  ret i64 %4
}

; Function Attrs: inlinehint nounwind uwtable
define internal ptr @GETSTRUCT(ptr noundef %0) #2 {
  %2 = alloca ptr, align 8
  store ptr %0, ptr %2, align 8
  %3 = load ptr, ptr %2, align 8
  %4 = getelementptr inbounds nuw %struct.HeapTupleData, ptr %3, i32 0, i32 3
  %5 = load ptr, ptr %4, align 8
  %6 = load ptr, ptr %2, align 8
  %7 = getelementptr inbounds nuw %struct.HeapTupleData, ptr %6, i32 0, i32 3
  %8 = load ptr, ptr %7, align 8
  %9 = getelementptr inbounds nuw %struct.HeapTupleHeaderData, ptr %8, i32 0, i32 4
  %10 = load i8, ptr %9, align 2
  %11 = zext i8 %10 to i32
  %12 = sext i32 %11 to i64
  %13 = getelementptr inbounds i8, ptr %5, i64 %12
  ret ptr %13
}

; Function Attrs: nounwind uwtable
define dso_local ptr @prepare_sql_fn_parse_info(ptr noundef %0, ptr noundef %1, i32 noundef %2) #0 {
  %4 = alloca ptr, align 8
  %5 = alloca ptr, align 8
  %6 = alloca i32, align 4
  %7 = alloca ptr, align 8
  %8 = alloca ptr, align 8
  %9 = alloca i32, align 4
  %10 = alloca ptr, align 8
  %11 = alloca i32, align 4
  %12 = alloca i32, align 4
  %13 = alloca i64, align 8
  %14 = alloca i64, align 8
  %15 = alloca i32, align 4
  %16 = alloca i8, align 1
  store ptr %0, ptr %4, align 8
  store ptr %1, ptr %5, align 8
  store i32 %2, ptr %6, align 4
  call void @llvm.lifetime.start.p0(i64 8, ptr %7) #8
  call void @llvm.lifetime.start.p0(i64 8, ptr %8) #8
  %17 = load ptr, ptr %4, align 8
  %18 = call ptr @GETSTRUCT(ptr noundef %17)
  store ptr %18, ptr %8, align 8
  call void @llvm.lifetime.start.p0(i64 4, ptr %9) #8
  %19 = call ptr @palloc0(i64 noundef 40)
  store ptr %19, ptr %7, align 8
  %20 = load ptr, ptr %8, align 8
  %21 = getelementptr inbounds nuw %struct.FormData_pg_proc, ptr %20, i32 0, i32 1
  %22 = getelementptr inbounds nuw %struct.nameData, ptr %21, i32 0, i32 0
  %23 = getelementptr inbounds [64 x i8], ptr %22, i64 0, i64 0
  %24 = call ptr @pstrdup(ptr noundef %23)
  %25 = load ptr, ptr %7, align 8
  %26 = getelementptr inbounds nuw %struct.SQLFunctionParseInfo, ptr %25, i32 0, i32 0
  store ptr %24, ptr %26, align 8
  %27 = load i32, ptr %6, align 4
  %28 = load ptr, ptr %7, align 8
  %29 = getelementptr inbounds nuw %struct.SQLFunctionParseInfo, ptr %28, i32 0, i32 4
  store i32 %27, ptr %29, align 8
  %30 = load ptr, ptr %8, align 8
  %31 = getelementptr inbounds nuw %struct.FormData_pg_proc, ptr %30, i32 0, i32 16
  %32 = load i16, ptr %31, align 4
  %33 = sext i16 %32 to i32
  store i32 %33, ptr %9, align 4
  %34 = load ptr, ptr %7, align 8
  %35 = getelementptr inbounds nuw %struct.SQLFunctionParseInfo, ptr %34, i32 0, i32 1
  store i32 %33, ptr %35, align 8
  %36 = load i32, ptr %9, align 4
  %37 = icmp sgt i32 %36, 0
  br i1 %37, label %38, label %131

38:                                               ; preds = %3
  call void @llvm.lifetime.start.p0(i64 8, ptr %10) #8
  call void @llvm.lifetime.start.p0(i64 4, ptr %11) #8
  %39 = load i32, ptr %9, align 4
  %40 = sext i32 %39 to i64
  %41 = mul i64 %40, 4
  %42 = call ptr @palloc(i64 noundef %41)
  store ptr %42, ptr %10, align 8
  %43 = load ptr, ptr %10, align 8
  %44 = load ptr, ptr %8, align 8
  %45 = getelementptr inbounds nuw %struct.FormData_pg_proc, ptr %44, i32 0, i32 19
  %46 = getelementptr inbounds nuw %struct.oidvector, ptr %45, i32 0, i32 6
  %47 = getelementptr inbounds [0 x i32], ptr %46, i64 0, i64 0
  %48 = load i32, ptr %9, align 4
  %49 = sext i32 %48 to i64
  %50 = mul i64 %49, 4
  call void @llvm.memcpy.p0.p0.i64(ptr align 4 %43, ptr align 4 %47, i64 %50, i1 false)
  store i32 0, ptr %11, align 4
  br label %51

51:                                               ; preds = %124, %38
  %52 = load i32, ptr %11, align 4
  %53 = load i32, ptr %9, align 4
  %54 = icmp slt i32 %52, %53
  br i1 %54, label %55, label %127

55:                                               ; preds = %51
  call void @llvm.lifetime.start.p0(i64 4, ptr %12) #8
  %56 = load ptr, ptr %10, align 8
  %57 = load i32, ptr %11, align 4
  %58 = sext i32 %57 to i64
  %59 = getelementptr inbounds i32, ptr %56, i64 %58
  %60 = load i32, ptr %59, align 4
  store i32 %60, ptr %12, align 4
  %61 = load i32, ptr %12, align 4
  %62 = icmp eq i32 %61, 2283
  br i1 %62, label %93, label %63

63:                                               ; preds = %55
  %64 = load i32, ptr %12, align 4
  %65 = icmp eq i32 %64, 2277
  br i1 %65, label %93, label %66

66:                                               ; preds = %63
  %67 = load i32, ptr %12, align 4
  %68 = icmp eq i32 %67, 2776
  br i1 %68, label %93, label %69

69:                                               ; preds = %66
  %70 = load i32, ptr %12, align 4
  %71 = icmp eq i32 %70, 3500
  br i1 %71, label %93, label %72

72:                                               ; preds = %69
  %73 = load i32, ptr %12, align 4
  %74 = icmp eq i32 %73, 3831
  br i1 %74, label %93, label %75

75:                                               ; preds = %72
  %76 = load i32, ptr %12, align 4
  %77 = icmp eq i32 %76, 4537
  br i1 %77, label %93, label %78

78:                                               ; preds = %75
  %79 = load i32, ptr %12, align 4
  %80 = icmp eq i32 %79, 5077
  br i1 %80, label %93, label %81

81:                                               ; preds = %78
  %82 = load i32, ptr %12, align 4
  %83 = icmp eq i32 %82, 5078
  br i1 %83, label %93, label %84

84:                                               ; preds = %81
  %85 = load i32, ptr %12, align 4
  %86 = icmp eq i32 %85, 5079
  br i1 %86, label %93, label %87

87:                                               ; preds = %84
  %88 = load i32, ptr %12, align 4
  %89 = icmp eq i32 %88, 5080
  br i1 %89, label %93, label %90

90:                                               ; preds = %87
  %91 = load i32, ptr %12, align 4
  %92 = icmp eq i32 %91, 4538
  br i1 %92, label %93, label %123

93:                                               ; preds = %90, %87, %84, %81, %78, %75, %72, %69, %66, %63, %55
  %94 = load ptr, ptr %5, align 8
  %95 = load i32, ptr %11, align 4
  %96 = call i32 @get_call_expr_argtype(ptr noundef %94, i32 noundef %95)
  store i32 %96, ptr %12, align 4
  %97 = load i32, ptr %12, align 4
  %98 = icmp eq i32 %97, 0
  br i1 %98, label %99, label %117

99:                                               ; preds = %93
  br label %100

100:                                              ; preds = %99
  br i1 true, label %101, label %103

101:                                              ; preds = %100
  %102 = call zeroext i1 @errstart_cold(i32 noundef 21, ptr noundef null) #9
  br i1 %102, label %105, label %114

103:                                              ; preds = %100
  %104 = call zeroext i1 @errstart(i32 noundef 21, ptr noundef null)
  br i1 %104, label %105, label %114

105:                                              ; preds = %103, %101
  %106 = call i32 @errcode(i32 noundef 67141764)
  %107 = load ptr, ptr %10, align 8
  %108 = load i32, ptr %11, align 4
  %109 = sext i32 %108 to i64
  %110 = getelementptr inbounds i32, ptr %107, i64 %109
  %111 = load i32, ptr %110, align 4
  %112 = call ptr @format_type_be(i32 noundef %111)
  %113 = call i32 (ptr, ...) @errmsg(ptr noundef @.str, ptr noundef %112)
  call void @errfinish(ptr noundef @.str.1, i32 noundef 218, ptr noundef @__func__.prepare_sql_fn_parse_info)
  br label %114

114:                                              ; preds = %105, %103, %101
  unreachable

115:                                              ; No predecessors!
  br label %116

116:                                              ; preds = %115
  br label %117

117:                                              ; preds = %116, %93
  %118 = load i32, ptr %12, align 4
  %119 = load ptr, ptr %10, align 8
  %120 = load i32, ptr %11, align 4
  %121 = sext i32 %120 to i64
  %122 = getelementptr inbounds i32, ptr %119, i64 %121
  store i32 %118, ptr %122, align 4
  br label %123

123:                                              ; preds = %117, %90
  call void @llvm.lifetime.end.p0(i64 4, ptr %12) #8
  br label %124

124:                                              ; preds = %123
  %125 = load i32, ptr %11, align 4
  %126 = add i32 %125, 1
  store i32 %126, ptr %11, align 4
  br label %51, !llvm.loop !4

127:                                              ; preds = %51
  %128 = load ptr, ptr %10, align 8
  %129 = load ptr, ptr %7, align 8
  %130 = getelementptr inbounds nuw %struct.SQLFunctionParseInfo, ptr %129, i32 0, i32 2
  store ptr %128, ptr %130, align 8
  call void @llvm.lifetime.end.p0(i64 4, ptr %11) #8
  call void @llvm.lifetime.end.p0(i64 8, ptr %10) #8
  br label %131

131:                                              ; preds = %127, %3
  %132 = load i32, ptr %9, align 4
  %133 = icmp sgt i32 %132, 0
  br i1 %133, label %134, label %161

134:                                              ; preds = %131
  call void @llvm.lifetime.start.p0(i64 8, ptr %13) #8
  call void @llvm.lifetime.start.p0(i64 8, ptr %14) #8
  call void @llvm.lifetime.start.p0(i64 4, ptr %15) #8
  call void @llvm.lifetime.start.p0(i64 1, ptr %16) #8
  %135 = load ptr, ptr %4, align 8
  %136 = call i64 @SysCacheGetAttr(i32 noundef 46, ptr noundef %135, i16 noundef signext 23, ptr noundef %16)
  store i64 %136, ptr %13, align 8
  %137 = load i8, ptr %16, align 1, !range !6, !noundef !7
  %138 = trunc i8 %137 to i1
  br i1 %138, label %139, label %141

139:                                              ; preds = %134
  %140 = call i64 @PointerGetDatum(ptr noundef null)
  store i64 %140, ptr %13, align 8
  br label %141

141:                                              ; preds = %139, %134
  %142 = load ptr, ptr %4, align 8
  %143 = call i64 @SysCacheGetAttr(i32 noundef 46, ptr noundef %142, i16 noundef signext 22, ptr noundef %16)
  store i64 %143, ptr %14, align 8
  %144 = load i8, ptr %16, align 1, !range !6, !noundef !7
  %145 = trunc i8 %144 to i1
  br i1 %145, label %146, label %148

146:                                              ; preds = %141
  %147 = call i64 @PointerGetDatum(ptr noundef null)
  store i64 %147, ptr %14, align 8
  br label %148

148:                                              ; preds = %146, %141
  %149 = load i64, ptr %13, align 8
  %150 = load i64, ptr %14, align 8
  %151 = load ptr, ptr %7, align 8
  %152 = getelementptr inbounds nuw %struct.SQLFunctionParseInfo, ptr %151, i32 0, i32 3
  %153 = call i32 @get_func_input_arg_names(i64 noundef %149, i64 noundef %150, ptr noundef %152)
  store i32 %153, ptr %15, align 4
  %154 = load i32, ptr %15, align 4
  %155 = load i32, ptr %9, align 4
  %156 = icmp slt i32 %154, %155
  br i1 %156, label %157, label %160

157:                                              ; preds = %148
  %158 = load ptr, ptr %7, align 8
  %159 = getelementptr inbounds nuw %struct.SQLFunctionParseInfo, ptr %158, i32 0, i32 3
  store ptr null, ptr %159, align 8
  br label %160

160:                                              ; preds = %157, %148
  call void @llvm.lifetime.end.p0(i64 1, ptr %16) #8
  call void @llvm.lifetime.end.p0(i64 4, ptr %15) #8
  call void @llvm.lifetime.end.p0(i64 8, ptr %14) #8
  call void @llvm.lifetime.end.p0(i64 8, ptr %13) #8
  br label %164

161:                                              ; preds = %131
  %162 = load ptr, ptr %7, align 8
  %163 = getelementptr inbounds nuw %struct.SQLFunctionParseInfo, ptr %162, i32 0, i32 3
  store ptr null, ptr %163, align 8
  br label %164

164:                                              ; preds = %161, %160
  %165 = load ptr, ptr %7, align 8
  call void @llvm.lifetime.end.p0(i64 4, ptr %9) #8
  call void @llvm.lifetime.end.p0(i64 8, ptr %8) #8
  call void @llvm.lifetime.end.p0(i64 8, ptr %7) #8
  ret ptr %165
}