; Function Attrs: nounwind uwtable
define dso_local ptr @prepare_sql_fn_parse_info(ptr noundef %0, ptr noundef %1, i32 noundef %2) local_unnamed_addr #0 {
  %4 = alloca i8, align 1
  %5 = getelementptr i8, ptr %0, i64 16
  %.val = load ptr, ptr %5, align 8
  %6 = getelementptr inbounds nuw i8, ptr %.val, i64 22
  %7 = load i8, ptr %6, align 2
  %8 = zext i8 %7 to i64
  %9 = getelementptr inbounds nuw i8, ptr %.val, i64 %8
  %10 = tail call ptr @palloc0(i64 noundef 40) #11
  %11 = getelementptr inbounds nuw i8, ptr %9, i64 4
  %12 = tail call ptr @pstrdup(ptr noundef nonnull %11) #11
  store ptr %12, ptr %10, align 8
  %13 = getelementptr inbounds nuw i8, ptr %10, i64 32
  store i32 %2, ptr %13, align 8
  %14 = getelementptr inbounds nuw i8, ptr %9, i64 104
  %15 = load i16, ptr %14, align 4
  %16 = sext i16 %15 to i32
  %17 = getelementptr inbounds nuw i8, ptr %10, i64 8
  store i32 %16, ptr %17, align 8
  %18 = icmp sgt i16 %15, 0
  br i1 %18, label %19, label %.critedge

19:                                               ; preds = %3
  %20 = shl nuw nsw i32 %16, 2
  %21 = zext nneg i32 %20 to i64
  %22 = tail call ptr @palloc(i64 noundef %21) #11
  %23 = getelementptr inbounds nuw i8, ptr %9, i64 136
  tail call void @llvm.memcpy.p0.p0.i64(ptr align 4 %22, ptr nonnull align 4 %23, i64 %21, i1 false)
  %wide.trip.count = zext nneg i32 %16 to i64
  br label %24

24:                                               ; preds = %19, %38
  %indvars.iv = phi i64 [ 0, %19 ], [ %indvars.iv.next, %38 ]
  %25 = getelementptr inbounds nuw i32, ptr %22, i64 %indvars.iv
  %26 = load i32, ptr %25, align 4
  switch i32 %26, label %38 [
    i32 5080, label %27
    i32 5079, label %27
    i32 5078, label %27
    i32 5077, label %27
    i32 4538, label %27
    i32 4537, label %27
    i32 3831, label %27
    i32 3500, label %27
    i32 2776, label %27
    i32 2283, label %27
    i32 2277, label %27
  ]

27:                                               ; preds = %24, %24, %24, %24, %24, %24, %24, %24, %24, %24, %24
  %28 = trunc nuw nsw i64 %indvars.iv to i32
  %29 = tail call i32 @get_call_expr_argtype(ptr noundef %1, i32 noundef %28) #11
  %30 = icmp eq i32 %29, 0
  br i1 %30, label %31, label %37

31:                                               ; preds = %27
  %32 = tail call zeroext i1 @errstart_cold(i32 noundef 21, ptr noundef null) #12
  tail call void @llvm.assume(i1 %32)
  %33 = tail call i32 @errcode(i32 noundef 67141764) #11
  %34 = load i32, ptr %25, align 4
  %35 = tail call ptr @format_type_be(i32 noundef %34) #11
  %36 = tail call i32 (ptr, ...) @errmsg(ptr noundef nonnull @.str, ptr noundef %35) #11
  tail call void @errfinish(ptr noundef nonnull @.str.1, i32 noundef 218, ptr noundef nonnull @__func__.prepare_sql_fn_parse_info) #11
  unreachable

37:                                               ; preds = %27
  store i32 %29, ptr %25, align 4
  br label %38

38:                                               ; preds = %24, %37
  %indvars.iv.next = add nuw nsw i64 %indvars.iv, 1
  %exitcond.not = icmp eq i64 %indvars.iv.next, %wide.trip.count
  br i1 %exitcond.not, label %39, label %24, !llvm.loop !4

39:                                               ; preds = %38
  %40 = getelementptr inbounds nuw i8, ptr %10, i64 16
  store ptr %22, ptr %40, align 8
  call void @llvm.lifetime.start.p0(i64 1, ptr nonnull %4) #11
  %41 = call i64 @SysCacheGetAttr(i32 noundef 46, ptr noundef %0, i16 noundef signext 23, ptr noundef nonnull %4) #11
  %42 = load i8, ptr %4, align 1, !range !6, !noundef !7
  %43 = trunc nuw i8 %42 to i1
  %spec.select = select i1 %43, i64 0, i64 %41
  %44 = call i64 @SysCacheGetAttr(i32 noundef 46, ptr noundef %0, i16 noundef signext 22, ptr noundef nonnull %4) #11
  %45 = load i8, ptr %4, align 1, !range !6, !noundef !7
  %46 = trunc nuw i8 %45 to i1
  %.067 = select i1 %46, i64 0, i64 %44
  %47 = getelementptr inbounds nuw i8, ptr %10, i64 24
  %48 = call i32 @get_func_input_arg_names(i64 noundef %spec.select, i64 noundef %.067, ptr noundef nonnull %47) #11
  %49 = icmp slt i32 %48, %16
  br i1 %49, label %50, label %51

50:                                               ; preds = %39
  store ptr null, ptr %47, align 8
  br label %51

51:                                               ; preds = %50, %39
  call void @llvm.lifetime.end.p0(i64 1, ptr nonnull %4) #11
  br label %53

.critedge:                                        ; preds = %3
  %52 = getelementptr inbounds nuw i8, ptr %10, i64 24
  store ptr null, ptr %52, align 8
  br label %53

53:                                               ; preds = %.critedge, %51
  ret ptr %10
}